; Function Attrs: cold mustprogress nounwind uwtable
define void @_ZN3fmt3v1119report_system_errorEiPKc(i32 noundef %0, ptr noundef %1) local_unnamed_addr #15 personality ptr @__gxx_personality_v0 {
  %3 = alloca %"class.fmt::v11::basic_memory_buffer", align 8
  call void @llvm.lifetime.start.p0(i64 536, ptr nonnull %3) #32
  %4 = getelementptr inbounds nuw i8, ptr %3, i64 16
  %5 = getelementptr inbounds nuw i8, ptr %3, i64 24
  %6 = getelementptr inbounds nuw i8, ptr %3, i64 8
  store i64 0, ptr %6, align 8
  store ptr @_ZN3fmt3v1119basic_memory_bufferIcLm500ESaIcEE4growERNS0_6detail6bufferIcEEm, ptr %5, align 8, !tbaa !19
  %7 = getelementptr inbounds nuw i8, ptr %3, i64 32
  store ptr %7, ptr %3, align 8, !tbaa !20
  store i64 500, ptr %4, align 8, !tbaa !21
  call void @_ZN3fmt3v1119format_system_errorERNS0_6detail6bufferIcEEiPKc(ptr noundef nonnull align 8 dereferenceable(32) %3, i32 noundef %0, ptr noundef %1)
  %8 = load ptr, ptr %3, align 8, !tbaa !20
  %9 = load i64, ptr %6, align 8, !tbaa !8
  %10 = load ptr, ptr @stderr, align 8, !tbaa !3
  %11 = call i64 @fwrite(ptr noundef %8, i64 noundef %9, i64 noundef 1, ptr noundef %10) #33
  %.not.i = icmp eq i64 %11, 0
  br i1 %.not.i, label %15, label %12

12:                                               ; preds = %2
  %13 = load ptr, ptr @stderr, align 8, !tbaa !3
  %14 = call i32 @fputc(i32 noundef 10, ptr noundef %13)
  br label %15

15:                                               ; preds = %12, %2
  %16 = load ptr, ptr %3, align 8, !tbaa !20
  %.not.i.i.i = icmp eq ptr %16, %7
  br i1 %.not.i.i.i, label %_ZN3fmt3v116detail12report_errorEPFvRNS1_6bufferIcEEiPKcEiS6_.exit, label %17

17:                                               ; preds = %15
  %18 = load i64, ptr %4, align 8, !tbaa !21
  call void @_ZdlPvm(ptr noundef %16, i64 noundef %18) #34
  br label %_ZN3fmt3v116detail12report_errorEPFvRNS1_6bufferIcEEiPKcEiS6_.exit

_ZN3fmt3v116detail12report_errorEPFvRNS1_6bufferIcEEiPKcEiS6_.exit: ; preds = %15, %17
  call void @llvm.lifetime.end.p0(i64 536, ptr nonnull %3) #32
  ret void
}